target datalayout = "e-m:e-p270:32:32-p271:32:32-p272:64:64-i64:64-i128:128-f80:128-n8:16:32:64-S128"
target triple = "x86_64-pc-linux-gnu"

%struct.stepd_step_rec_t = type { ptr, ptr, i32, %union.pthread_cond_t, %union.pthread_mutex_t, %struct.slurm_step_id_msg, i32, i32, i32, i32, i32, i32, ptr, ptr, i32, i32, ptr, i32, i32, i32, i32, i32, ptr, ptr, ptr, ptr, i32, i32, i64, i64, i16, i32, ptr, ptr, ptr, i32, ptr, i32, ptr, i32, ptr, i16, i32, i32, i32, ptr, i32, ptr, ptr, ptr, ptr, i32, i32, ptr, ptr, i8, i8, i8, i64, i32, ptr, ptr, ptr, ptr, ptr, ptr, ptr, ptr, ptr, ptr, i32, i32, ptr, i8, %union.pthread_cond_t, %union.pthread_mutex_t, i64, ptr, i32, i32, i32, ptr, i64, ptr, ptr, i8, ptr, i16, ptr, ptr, ptr, ptr, ptr, ptr, i64, ptr, i64, ptr, i16, i8, i16, i32, ptr, i16, ptr, ptr, i16, ptr, ptr, ptr, i8 }
%struct.slurm_step_id_msg = type { i64, i32, i32, i32 }
%union.pthread_cond_t = type { %struct.__pthread_cond_s }
%struct.__pthread_cond_s = type { %union.__atomic_wide_counter, %union.__atomic_wide_counter, [2 x i32], [2 x i32], i32, i32, [2 x i32] }
%union.__atomic_wide_counter = type { i64 }
%union.pthread_mutex_t = type { %struct.__pthread_mutex_s }
%struct.__pthread_mutex_s = type { i32, i32, i32, i32, i32, i16, i16, %struct.__pthread_internal_list }
%struct.__pthread_internal_list = type { ptr, ptr }
%struct.env_options = type { i32, ptr, i8, i8, i32, i16, i32, ptr, i32, i32, i32, i32, ptr, i8, i32, i8, i32, ptr, ptr, ptr, i16, ptr, ptr, i32, i32, i32, i32, i32, i32, i32, i32, i32, i32, i32, i16, i32, i32, ptr, i16, i16, i16, i16, i16, i32, ptr, i32, ptr, ptr, ptr, ptr, i64, ptr, i64, i16 }
%struct.slurmd_config = type { ptr, ptr, i32, [4096 x i8], ptr, ptr, ptr, ptr, i16, i16, i16, i16, ptr, i16, i64, i16, i16, i16, i16, i16, i16, i16, i16, i16, i16, i16, i64, i64, i32, i32, i16, ptr, ptr, ptr, i32, ptr, ptr, ptr, ptr, ptr, ptr, ptr, ptr, ptr, ptr, i32, ptr, ptr, i16, i32, i32, %struct.log_options_t, i32, i16, i64, i8, i8, i8, i8, i8, %union.pthread_mutex_t, i16, ptr, %union.pthread_cond_t, ptr, %union.pthread_cond_t, i8, i8, ptr, ptr }
%struct.log_options_t = type { i32, i32, i32, i8, i8, i8, i32 }
%struct.nodemask_t = type { [2 x i64] }

@.str = private unnamed_addr constant [2 x i8] c"=\00", align 1
@.str.1 = private unnamed_addr constant [1 x i8] zeroinitializer, align 1
@.str.2 = private unnamed_addr constant [5 x i8] c"NONE\00", align 1
@.str.3 = private unnamed_addr constant [5 x i8] c" set\00", align 1
@.str.4 = private unnamed_addr constant [9 x i8] c" PREFER \00", align 1
@.str.5 = private unnamed_addr constant [5 x i8] c"RANK\00", align 1
@.str.6 = private unnamed_addr constant [4 x i8] c"LOC\00", align 1
@.str.7 = private unnamed_addr constant [4 x i8] c"MAP\00", align 1
@.str.8 = private unnamed_addr constant [5 x i8] c"MASK\00", align 1
@.str.9 = private unnamed_addr constant [4 x i8] c"UNK\00", align 1
@.str.10 = private unnamed_addr constant [5 x i8] c"NULL\00", align 1
@stderr = external global ptr, align 8
@.str.11 = private unnamed_addr constant [51 x i8] c"mem-bind%s%s - %s, task %2u %2u [%u]: mask 0x%s%s\0A\00", align 1
@conf = external global ptr, align 8

; Function Attrs: inlinehint nounwind uwtable
define internal i32 @nodemask_isset_compat(ptr noundef %0, i32 noundef %1) #4 {
  %3 = alloca i32, align 4
  %4 = alloca ptr, align 8
  %5 = alloca i32, align 4
  store ptr %0, ptr %4, align 8
  store i32 %1, ptr %5, align 4
  %6 = load i32, ptr %5, align 4
  %7 = icmp uge i32 %6, 128
  br i1 %7, label %8, label %9

8:                                                ; preds = %2
  store i32 0, ptr %3, align 4
  br label %25

9:                                                ; preds = %2
  %10 = load ptr, ptr %4, align 8
  %11 = getelementptr inbounds nuw %struct.nodemask_t, ptr %10, i32 0, i32 0
  %12 = load i32, ptr %5, align 4
  %13 = sext i32 %12 to i64
  %14 = udiv i64 %13, 64
  %15 = getelementptr inbounds nuw [2 x i64], ptr %11, i64 0, i64 %14
  %16 = load i64, ptr %15, align 8
  %17 = load i32, ptr %5, align 4
  %18 = sext i32 %17 to i64
  %19 = urem i64 %18, 64
  %20 = shl i64 1, %19
  %21 = and i64 %16, %20
  %22 = icmp ne i64 %21, 0
  br i1 %22, label %23, label %24

23:                                               ; preds = %9
  store i32 1, ptr %3, align 4
  br label %25

24:                                               ; preds = %9
  store i32 0, ptr %3, align 4
  br label %25

25:                                               ; preds = %24, %23, %8
  %26 = load i32, ptr %3, align 4
  ret i32 %26
}

; Function Attrs: nounwind uwtable
define internal ptr @_memset_to_str(ptr noundef %0, ptr noundef %1) #0 {
  %3 = alloca ptr, align 8
  %4 = alloca ptr, align 8
  %5 = alloca i32, align 4
  %6 = alloca i32, align 4
  %7 = alloca ptr, align 8
  %8 = alloca ptr, align 8
  %9 = alloca i8, align 1
  %10 = alloca i32, align 4
  store ptr %0, ptr %3, align 8
  store ptr %1, ptr %4, align 8
  call void @llvm.lifetime.start.p0(i64 4, ptr %5) #8
  call void @llvm.lifetime.start.p0(i64 4, ptr %6) #8
  store i32 0, ptr %6, align 4
  call void @llvm.lifetime.start.p0(i64 8, ptr %7) #8
  %11 = load ptr, ptr %4, align 8
  store ptr %11, ptr %7, align 8
  call void @llvm.lifetime.start.p0(i64 8, ptr %8) #8
  store ptr null, ptr %8, align 8
  store i32 124, ptr %5, align 4
  br label %12

12:                                               ; preds = %88, %2
  %13 = load i32, ptr %5, align 4
  %14 = icmp sge i32 %13, 0
  br i1 %14, label %15, label %91

15:                                               ; preds = %12
  call void @llvm.lifetime.start.p0(i64 1, ptr %9) #8
  store i8 0, ptr %9, align 1
  %16 = load ptr, ptr %3, align 8
  %17 = load i32, ptr %5, align 4
  %18 = call i32 @nodemask_isset_compat(ptr noundef %16, i32 noundef %17)
  %19 = icmp ne i32 %18, 0
  br i1 %19, label %20, label %25

20:                                               ; preds = %15
  %21 = load i8, ptr %9, align 1
  %22 = sext i8 %21 to i32
  %23 = or i32 %22, 1
  %24 = trunc i32 %23 to i8
  store i8 %24, ptr %9, align 1
  br label %25

25:                                               ; preds = %20, %15
  %26 = load ptr, ptr %3, align 8
  %27 = load i32, ptr %5, align 4
  %28 = add nsw i32 %27, 1
  %29 = call i32 @nodemask_isset_compat(ptr noundef %26, i32 noundef %28)
  %30 = icmp ne i32 %29, 0
  br i1 %30, label %31, label %36

31:                                               ; preds = %25
  %32 = load i8, ptr %9, align 1
  %33 = sext i8 %32 to i32
  %34 = or i32 %33, 2
  %35 = trunc i32 %34 to i8
  store i8 %35, ptr %9, align 1
  br label %36

36:                                               ; preds = %31, %25
  %37 = load ptr, ptr %3, align 8
  %38 = load i32, ptr %5, align 4
  %39 = add nsw i32 %38, 2
  %40 = call i32 @nodemask_isset_compat(ptr noundef %37, i32 noundef %39)
  %41 = icmp ne i32 %40, 0
  br i1 %41, label %42, label %47

42:                                               ; preds = %36
  %43 = load i8, ptr %9, align 1
  %44 = sext i8 %43 to i32
  %45 = or i32 %44, 4
  %46 = trunc i32 %45 to i8
  store i8 %46, ptr %9, align 1
  br label %47

47:                                               ; preds = %42, %36
  %48 = load ptr, ptr %3, align 8
  %49 = load i32, ptr %5, align 4
  %50 = add nsw i32 %49, 3
  %51 = call i32 @nodemask_isset_compat(ptr noundef %48, i32 noundef %50)
  %52 = icmp ne i32 %51, 0
  br i1 %52, label %53, label %58

53:                                               ; preds = %47
  %54 = load i8, ptr %9, align 1
  %55 = sext i8 %54 to i32
  %56 = or i32 %55, 8
  %57 = trunc i32 %56 to i8
  store i8 %57, ptr %9, align 1
  br label %58

58:                                               ; preds = %53, %47
  %59 = load i32, ptr %6, align 4
  %60 = icmp eq i32 %59, 0
  br i1 %60, label %61, label %69

61:                                               ; preds = %58
  %62 = load i8, ptr %9, align 1
  %63 = sext i8 %62 to i32
  %64 = icmp eq i32 %63, 0
  br i1 %64, label %65, label %69

65:                                               ; preds = %61
  %66 = load i32, ptr %5, align 4
  %67 = icmp sgt i32 %66, 124
  br i1 %67, label %68, label %69

68:                                               ; preds = %65
  store i32 4, ptr %10, align 4
  br label %85

69:                                               ; preds = %65, %61, %58
  store i32 1, ptr %6, align 4
  %70 = load ptr, ptr %8, align 8
  %71 = icmp ne ptr %70, null
  br i1 %71, label %78, label %72

72:                                               ; preds = %69
  %73 = load i8, ptr %9, align 1
  %74 = sext i8 %73 to i32
  %75 = icmp ne i32 %74, 0
  br i1 %75, label %76, label %78

76:                                               ; preds = %72
  %77 = load ptr, ptr %7, align 8
  store ptr %77, ptr %8, align 8
  br label %78

78:                                               ; preds = %76, %72, %69
  %79 = load i8, ptr %9, align 1
  %80 = sext i8 %79 to i32
  %81 = call i32 @slurm_hex_to_char(i32 noundef %80)
  %82 = trunc i32 %81 to i8
  %83 = load ptr, ptr %7, align 8
  %84 = getelementptr inbounds nuw i8, ptr %83, i32 1
  store ptr %84, ptr %7, align 8
  store i8 %82, ptr %83, align 1
  store i32 0, ptr %10, align 4
  br label %85

85:                                               ; preds = %78, %68
  call void @llvm.lifetime.end.p0(i64 1, ptr %9) #8
  %86 = load i32, ptr %10, align 4
  switch i32 %86, label %102 [
    i32 0, label %87
    i32 4, label %88
  ]

87:                                               ; preds = %85
  br label %88

88:                                               ; preds = %87, %85
  %89 = load i32, ptr %5, align 4
  %90 = sub nsw i32 %89, 4
  store i32 %90, ptr %5, align 4
  br label %12, !llvm.loop !8

91:                                               ; preds = %12
  %92 = load ptr, ptr %7, align 8
  store i8 0, ptr %92, align 1
  %93 = load ptr, ptr %8, align 8
  %94 = icmp ne ptr %93, null
  br i1 %94, label %95, label %97

95:                                               ; preds = %91
  %96 = load ptr, ptr %8, align 8
  br label %100

97:                                               ; preds = %91
  %98 = load ptr, ptr %7, align 8
  %99 = getelementptr inbounds i8, ptr %98, i64 -1
  br label %100

100:                                              ; preds = %97, %95
  %101 = phi ptr [ %96, %95 ], [ %99, %97 ]
  store i32 1, ptr %10, align 4
  call void @llvm.lifetime.end.p0(i64 8, ptr %8) #8
  call void @llvm.lifetime.end.p0(i64 8, ptr %7) #8
  call void @llvm.lifetime.end.p0(i64 4, ptr %6) #8
  call void @llvm.lifetime.end.p0(i64 4, ptr %5) #8
  ret ptr %101

102:                                              ; preds = %85
  unreachable
}

; Function Attrs: nounwind uwtable
define dso_local void @slurm_chk_memset(ptr noundef %0, ptr noundef %1) #0 {
  %3 = alloca ptr, align 8
  %4 = alloca ptr, align 8
  %5 = alloca ptr, align 8
  %6 = alloca ptr, align 8
  %7 = alloca ptr, align 8
  %8 = alloca [33 x i8], align 16
  %9 = alloca i32, align 4
  %10 = alloca i32, align 4
  %11 = alloca i32, align 4
  %12 = alloca i32, align 4
  store ptr %0, ptr %3, align 8
  store ptr %1, ptr %4, align 8
  call void @llvm.lifetime.start.p0(i64 8, ptr %5) #8
  call void @llvm.lifetime.start.p0(i64 8, ptr %6) #8
  call void @llvm.lifetime.start.p0(i64 8, ptr %7) #8
  call void @llvm.lifetime.start.p0(i64 33, ptr %8) #8
  call void @llvm.lifetime.start.p0(i64 4, ptr %9) #8
  %13 = load ptr, ptr %4, align 8
  %14 = getelementptr inbounds nuw %struct.stepd_step_rec_t, ptr %13, i32 0, i32 81
  %15 = load ptr, ptr %14, align 8
  %16 = getelementptr inbounds nuw %struct.env_options, ptr %15, i32 0, i32 25
  %17 = load i32, ptr %16, align 8
  store i32 %17, ptr %9, align 4
  call void @llvm.lifetime.start.p0(i64 4, ptr %10) #8
  %18 = load ptr, ptr %4, align 8
  %19 = getelementptr inbounds nuw %struct.stepd_step_rec_t, ptr %18, i32 0, i32 81
  %20 = load ptr, ptr %19, align 8
  %21 = getelementptr inbounds nuw %struct.env_options, ptr %20, i32 0, i32 26
  %22 = load i32, ptr %21, align 4
  store i32 %22, ptr %10, align 4
  call void @llvm.lifetime.start.p0(i64 4, ptr %11) #8
  %23 = load ptr, ptr %4, align 8
  %24 = getelementptr inbounds nuw %struct.stepd_step_rec_t, ptr %23, i32 0, i32 81
  %25 = load ptr, ptr %24, align 8
  %26 = getelementptr inbounds nuw %struct.env_options, ptr %25, i32 0, i32 36
  %27 = load i32, ptr %26, align 4
  store i32 %27, ptr %11, align 4
  %28 = load ptr, ptr %4, align 8
  %29 = getelementptr inbounds nuw %struct.stepd_step_rec_t, ptr %28, i32 0, i32 39
  %30 = load i32, ptr %29, align 8
  %31 = and i32 %30, 1
  %32 = icmp ne i32 %31, 0
  br i1 %32, label %34, label %33

33:                                               ; preds = %2
  store i32 1, ptr %12, align 4
  br label %105

34:                                               ; preds = %2
  %35 = load ptr, ptr %4, align 8
  %36 = getelementptr inbounds nuw %struct.stepd_step_rec_t, ptr %35, i32 0, i32 39
  %37 = load i32, ptr %36, align 8
  %38 = and i32 %37, 2
  %39 = icmp ne i32 %38, 0
  br i1 %39, label %40, label %41

40:                                               ; preds = %34
  store ptr @.str, ptr %7, align 8
  store ptr @.str.1, ptr %5, align 8
  store ptr @.str.2, ptr %6, align 8
  br label %90

41:                                               ; preds = %34
  store ptr @.str.3, ptr %5, align 8
  %42 = load ptr, ptr %4, align 8
  %43 = getelementptr inbounds nuw %struct.stepd_step_rec_t, ptr %42, i32 0, i32 39
  %44 = load i32, ptr %43, align 8
  %45 = and i32 %44, 128
  %46 = icmp ne i32 %45, 0
  br i1 %46, label %47, label %48

47:                                               ; preds = %41
  store ptr @.str.4, ptr %7, align 8
  br label %49

48:                                               ; preds = %41
  store ptr @.str, ptr %7, align 8
  br label %49

49:                                               ; preds = %48, %47
  %50 = load ptr, ptr %4, align 8
  %51 = getelementptr inbounds nuw %struct.stepd_step_rec_t, ptr %50, i32 0, i32 39
  %52 = load i32, ptr %51, align 8
  %53 = and i32 %52, 4
  %54 = icmp ne i32 %53, 0
  br i1 %54, label %55, label %56

55:                                               ; preds = %49
  store ptr @.str.5, ptr %6, align 8
  br label %89

56:                                               ; preds = %49
  %57 = load ptr, ptr %4, align 8
  %58 = getelementptr inbounds nuw %struct.stepd_step_rec_t, ptr %57, i32 0, i32 39
  %59 = load i32, ptr %58, align 8
  %60 = and i32 %59, 32
  %61 = icmp ne i32 %60, 0
  br i1 %61, label %62, label %63

62:                                               ; preds = %56
  store ptr @.str.6, ptr %6, align 8
  br label %88

63:                                               ; preds = %56
  %64 = load ptr, ptr %4, align 8
  %65 = getelementptr inbounds nuw %struct.stepd_step_rec_t, ptr %64, i32 0, i32 39
  %66 = load i32, ptr %65, align 8
  %67 = and i32 %66, 8
  %68 = icmp ne i32 %67, 0
  br i1 %68, label %69, label %70

69:                                               ; preds = %63
  store ptr @.str.7, ptr %6, align 8
  br label %87

70:                                               ; preds = %63
  %71 = load ptr, ptr %4, align 8
  %72 = getelementptr inbounds nuw %struct.stepd_step_rec_t, ptr %71, i32 0, i32 39
  %73 = load i32, ptr %72, align 8
  %74 = and i32 %73, 16
  %75 = icmp ne i32 %74, 0
  br i1 %75, label %76, label %77

76:                                               ; preds = %70
  store ptr @.str.8, ptr %6, align 8
  br label %86

77:                                               ; preds = %70
  %78 = load ptr, ptr %4, align 8
  %79 = getelementptr inbounds nuw %struct.stepd_step_rec_t, ptr %78, i32 0, i32 39
  %80 = load i32, ptr %79, align 8
  %81 = and i32 %80, -2
  %82 = icmp ne i32 %81, 0
  br i1 %82, label %83, label %84

83:                                               ; preds = %77
  store ptr @.str.9, ptr %6, align 8
  br label %85

84:                                               ; preds = %77
  store ptr @.str.1, ptr %5, align 8
  store ptr @.str.10, ptr %6, align 8
  br label %85

85:                                               ; preds = %84, %83
  br label %86

86:                                               ; preds = %85, %76
  br label %87

87:                                               ; preds = %86, %69
  br label %88

88:                                               ; preds = %87, %62
  br label %89

89:                                               ; preds = %88, %55
  br label %90

90:                                               ; preds = %89, %40
  %91 = load ptr, ptr @stderr, align 8
  %92 = load ptr, ptr %7, align 8
  %93 = load ptr, ptr %6, align 8
  %94 = load ptr, ptr @conf, align 8
  %95 = getelementptr inbounds nuw %struct.slurmd_config, ptr %94, i32 0, i32 5
  %96 = load ptr, ptr %95, align 8
  %97 = load i32, ptr %9, align 4
  %98 = load i32, ptr %10, align 4
  %99 = load i32, ptr %11, align 4
  %100 = load ptr, ptr %3, align 8
  %101 = getelementptr inbounds [33 x i8], ptr %8, i64 0, i64 0
  %102 = call ptr @_memset_to_str(ptr noundef %100, ptr noundef %101)
  %103 = load ptr, ptr %5, align 8
  %104 = call i32 (ptr, ptr, ...) @fprintf(ptr noundef %91, ptr noundef @.str.11, ptr noundef %92, ptr noundef %93, ptr noundef %96, i32 noundef %97, i32 noundef %98, i32 noundef %99, ptr noundef %102, ptr noundef %103) #8
  store i32 0, ptr %12, align 4
  br label %105

105:                                              ; preds = %90, %33
  call void @llvm.lifetime.end.p0(i64 4, ptr %11) #8
  call void @llvm.lifetime.end.p0(i64 4, ptr %10) #8
  call void @llvm.lifetime.end.p0(i64 4, ptr %9) #8
  call void @llvm.lifetime.end.p0(i64 33, ptr %8) #8
  call void @llvm.lifetime.end.p0(i64 8, ptr %7) #8
  call void @llvm.lifetime.end.p0(i64 8, ptr %6) #8
  call void @llvm.lifetime.end.p0(i64 8, ptr %5) #8
  %106 = load i32, ptr %12, align 4
  switch i32 %106, label %108 [
    i32 0, label %107
    i32 1, label %107
  ]

107:                                              ; preds = %105, %105
  ret void

108:                                              ; preds = %105
  unreachable
}