; Function Attrs: nounwind uwtable
define dso_local void @slurm_chk_memset(ptr noundef readonly captures(none) %0, ptr noundef readonly captures(none) %1) local_unnamed_addr #0 {
  %3 = alloca [33 x i8], align 16
  call void @llvm.lifetime.start.p0(i64 33, ptr nonnull %3) #8
  %4 = getelementptr inbounds nuw i8, ptr %1, i64 688
  %5 = load ptr, ptr %4, align 8
  %6 = getelementptr inbounds nuw i8, ptr %5, i64 136
  %7 = load i32, ptr %6, align 8
  %8 = getelementptr inbounds nuw i8, ptr %5, i64 140
  %9 = load i32, ptr %8, align 4
  %10 = getelementptr inbounds nuw i8, ptr %5, i64 180
  %11 = load i32, ptr %10, align 4
  %12 = getelementptr inbounds nuw i8, ptr %1, i64 336
  %13 = load i32, ptr %12, align 8
  %14 = and i32 %13, 1
  %.not = icmp eq i32 %14, 0
  br i1 %.not, label %58, label %15

15:                                               ; preds = %2
  %16 = and i32 %13, 2
  %.not19 = icmp eq i32 %16, 0
  br i1 %.not19, label %17, label %27

17:                                               ; preds = %15
  %18 = and i32 %13, 128
  %.not20 = icmp eq i32 %18, 0
  %.str..str.4 = select i1 %.not20, ptr @.str, ptr @.str.4
  %19 = and i32 %13, 4
  %.not21 = icmp eq i32 %19, 0
  br i1 %.not21, label %20, label %27

20:                                               ; preds = %17
  %21 = and i32 %13, 32
  %.not22 = icmp eq i32 %21, 0
  br i1 %.not22, label %22, label %27

22:                                               ; preds = %20
  %23 = and i32 %13, 8
  %.not23 = icmp eq i32 %23, 0
  br i1 %.not23, label %24, label %27

24:                                               ; preds = %22
  %25 = and i32 %13, 16
  %.not24 = icmp eq i32 %25, 0
  br i1 %.not24, label %26, label %27

26:                                               ; preds = %24
  %.not25 = icmp ult i32 %13, 64
  %.str.10..str.9 = select i1 %.not25, ptr @.str.10, ptr @.str.9
  %.str.1..str.3 = select i1 %.not25, ptr @.str.1, ptr @.str.3
  br label %27

27:                                               ; preds = %26, %24, %22, %20, %17, %15
  %.018 = phi ptr [ @.str, %15 ], [ %.str..str.4, %17 ], [ %.str..str.4, %20 ], [ %.str..str.4, %22 ], [ %.str..str.4, %24 ], [ %.str..str.4, %26 ]
  %.017 = phi ptr [ @.str.2, %15 ], [ @.str.5, %17 ], [ @.str.6, %20 ], [ @.str.7, %22 ], [ @.str.8, %24 ], [ %.str.10..str.9, %26 ]
  %.0 = phi ptr [ @.str.1, %15 ], [ @.str.3, %17 ], [ @.str.3, %20 ], [ @.str.3, %22 ], [ @.str.3, %24 ], [ %.str.1..str.3, %26 ]
  %28 = load ptr, ptr @stderr, align 8
  %29 = load ptr, ptr @conf, align 8
  %30 = getelementptr inbounds nuw i8, ptr %29, i64 4128
  %31 = load ptr, ptr %30, align 8
  br label %nodemask_isset_compat.exit.i

nodemask_isset_compat.exit.i:                     ; preds = %nodemask_isset_compat.exit.i, %27
  %indvars.iv.i = phi i64 [ 124, %27 ], [ %indvars.iv.next.i, %nodemask_isset_compat.exit.i ]
  %.03382.i = phi ptr [ null, %27 ], [ %spec.select45.i, %nodemask_isset_compat.exit.i ]
  %.03681.i = phi ptr [ %3, %27 ], [ %55, %nodemask_isset_compat.exit.i ]
  %32 = lshr i64 %indvars.iv.i, 6
  %33 = getelementptr inbounds nuw [2 x i64], ptr %0, i64 0, i64 %32
  %34 = load i64, ptr %33, align 8
  %35 = and i64 %indvars.iv.i, 60
  %36 = shl nuw nsw i64 1, %35
  %37 = and i64 %34, %36
  %.fr.i = freeze i64 %37
  %.not41.i = icmp ne i64 %.fr.i, 0
  %spec.select.i = zext i1 %.not41.i to i8
  %38 = shl nuw nsw i64 2, %35
  %39 = and i64 %34, %38
  %.fr74.i = freeze i64 %39
  %.not42.i = icmp eq i64 %.fr74.i, 0
  %40 = or disjoint i8 %spec.select.i, 2
  %41 = select i1 %.not42.i, i8 %spec.select.i, i8 %40
  %42 = shl nuw nsw i64 4, %35
  %43 = and i64 %34, %42
  %.fr76.i = freeze i64 %43
  %.not43.i = icmp eq i64 %.fr76.i, 0
  %44 = or disjoint i8 %41, 4
  %45 = select i1 %.not43.i, i8 %41, i8 %44
  %46 = shl nuw i64 8, %35
  %47 = and i64 %34, %46
  %.fr78.i = freeze i64 %47
  %.not44.i = icmp eq i64 %.fr78.i, 0
  %48 = or disjoint i8 %45, 8
  %49 = select i1 %.not44.i, i8 %45, i8 %48
  %50 = zext nneg i8 %49 to i32
  %51 = icmp eq ptr %.03382.i, null
  %52 = icmp ne i8 %49, 0
  %or.cond7.i = and i1 %51, %52
  %spec.select45.i = select i1 %or.cond7.i, ptr %.03681.i, ptr %.03382.i
  %53 = call i32 @slurm_hex_to_char(i32 noundef %50) #8
  %54 = trunc i32 %53 to i8
  %55 = getelementptr inbounds nuw i8, ptr %.03681.i, i64 1
  store i8 %54, ptr %.03681.i, align 1
  %indvars.iv.next.i = add nsw i64 %indvars.iv.i, -4
  %.not84.i = icmp eq i64 %indvars.iv.i, 0
  br i1 %.not84.i, label %_memset_to_str.exit, label %nodemask_isset_compat.exit.i, !llvm.loop !8

_memset_to_str.exit:                              ; preds = %nodemask_isset_compat.exit.i
  store i8 0, ptr %55, align 1
  %.not.i = icmp eq ptr %spec.select45.i, null
  %56 = select i1 %.not.i, ptr %.03681.i, ptr %spec.select45.i
  %57 = call i32 (ptr, ptr, ...) @fprintf(ptr noundef %28, ptr noundef nonnull @.str.11, ptr noundef nonnull %.018, ptr noundef nonnull %.017, ptr noundef %31, i32 noundef %7, i32 noundef %9, i32 noundef %11, ptr noundef nonnull %56, ptr noundef nonnull %.0) #9
  br label %58

58:                                               ; preds = %2, %_memset_to_str.exit
  call void @llvm.lifetime.end.p0(i64 33, ptr nonnull %3) #8
  ret void
}